; Function Attrs: mustprogress nofree norecurse nosync nounwind memory(readwrite, inaccessiblemem: none) uwtable
define internal void @_ZN2cvL10inRange32fEPKfmS1_mS1_mPhmNS_5Size_IiEE(ptr nocapture noundef readonly %0, i64 noundef %1, ptr nocapture noundef readonly %2, i64 noundef %3, ptr nocapture noundef readonly %4, i64 noundef %5, ptr nocapture noundef writeonly %6, i64 noundef %7, i64 %8) #13 {
  %10 = lshr i64 %1, 2
  %11 = lshr i64 %3, 2
  %12 = lshr i64 %5, 2
  %.not33.i = icmp ugt i64 %8, 4294967295
  %.sroa.0.0.extract.trunc.i = trunc i64 %8 to i32
  %13 = icmp sgt i32 %.sroa.0.0.extract.trunc.i, 0
  %or.cond.i = and i1 %.not33.i, %13
  br i1 %or.cond.i, label %.preheader.us.preheader.i, label %_ZN2cvL8inRange_IfEEvPKT_mS3_mS3_mPhmNS_5Size_IiEE.exit

.preheader.us.preheader.i:                        ; preds = %9
  %.sroa.3.0.extract.shift.i = lshr i64 %8, 32
  %.sroa.3.0.extract.trunc.i = trunc nuw i64 %.sroa.3.0.extract.shift.i to i32
  %wide.trip.count.i = and i64 %8, 2147483647
  br label %.preheader.us.i

.preheader.us.i:                                  ; preds = %._crit_edge.us.i, %.preheader.us.preheader.i
  %.in.i = phi i32 [ %28, %._crit_edge.us.i ], [ %.sroa.3.0.extract.trunc.i, %.preheader.us.preheader.i ]
  %.02737.us.i = phi ptr [ %32, %._crit_edge.us.i ], [ %6, %.preheader.us.preheader.i ]
  %.02836.us.i = phi ptr [ %31, %._crit_edge.us.i ], [ %4, %.preheader.us.preheader.i ]
  %.02935.us.i = phi ptr [ %30, %._crit_edge.us.i ], [ %2, %.preheader.us.preheader.i ]
  %.03034.us.i = phi ptr [ %29, %._crit_edge.us.i ], [ %0, %.preheader.us.preheader.i ]
  br label %14

14:                                               ; preds = %24, %.preheader.us.i
  %indvars.iv.i = phi i64 [ 0, %.preheader.us.i ], [ %indvars.iv.next.i, %24 ]
  %15 = getelementptr inbounds float, ptr %.02935.us.i, i64 %indvars.iv.i
  %16 = load float, ptr %15, align 4
  %17 = getelementptr inbounds float, ptr %.03034.us.i, i64 %indvars.iv.i
  %18 = load float, ptr %17, align 4
  %19 = fcmp ugt float %16, %18
  br i1 %19, label %24, label %20

20:                                               ; preds = %14
  %21 = getelementptr inbounds float, ptr %.02836.us.i, i64 %indvars.iv.i
  %22 = load float, ptr %21, align 4
  %23 = fcmp ole float %18, %22
  br label %24

24:                                               ; preds = %20, %14
  %25 = phi i1 [ false, %14 ], [ %23, %20 ]
  %26 = sext i1 %25 to i8
  %27 = getelementptr inbounds i8, ptr %.02737.us.i, i64 %indvars.iv.i
  store i8 %26, ptr %27, align 1
  %indvars.iv.next.i = add nuw nsw i64 %indvars.iv.i, 1
  %exitcond.not.i = icmp eq i64 %indvars.iv.next.i, %wide.trip.count.i
  br i1 %exitcond.not.i, label %._crit_edge.us.i, label %14, !llvm.loop !139

._crit_edge.us.i:                                 ; preds = %24
  %28 = add nsw i32 %.in.i, -1
  %29 = getelementptr inbounds float, ptr %.03034.us.i, i64 %10
  %30 = getelementptr inbounds float, ptr %.02935.us.i, i64 %11
  %31 = getelementptr inbounds float, ptr %.02836.us.i, i64 %12
  %32 = getelementptr inbounds i8, ptr %.02737.us.i, i64 %7
  %.not.us.i = icmp eq i32 %28, 0
  br i1 %.not.us.i, label %_ZN2cvL8inRange_IfEEvPKT_mS3_mS3_mPhmNS_5Size_IiEE.exit, label %.preheader.us.i, !llvm.loop !140

_ZN2cvL8inRange_IfEEvPKT_mS3_mS3_mPhmNS_5Size_IiEE.exit: ; preds = %._crit_edge.us.i, %9
  ret void
}